SF:/Users/samleung/Desktop/unified_workspace/black_hole/program/hkid_ops/rust_hkid_ops/src/hkid_check_digit.rs
FN:75,_RNCNvNtCseOoxELMropi_8hkid_ops16hkid_check_digit21calculate_check_digit0B5_
FN:24,_RNvNtCseOoxELMropi_8hkid_ops16hkid_check_digit13char_to_value
FN:66,_RNvNtCseOoxELMropi_8hkid_ops16hkid_check_digit21calculate_check_digit
FN:89,_RNvNtNtCseOoxELMropi_8hkid_ops16hkid_check_digit5testss_18test_char_to_value
FN:125,_RNvNtNtCseOoxELMropi_8hkid_ops16hkid_check_digit5testss_39test_calculate_check_digit_with_padding
FN:117,_RNvNtNtCseOoxELMropi_8hkid_ops16hkid_check_digit5testss_41test_calculate_check_digit_resulting_in_a
FN:109,_RNvNtNtCseOoxELMropi_8hkid_ops16hkid_check_digit5testss_47test_calculate_check_digit_double_letter_prefix
FN:101,_RNvNtNtCseOoxELMropi_8hkid_ops16hkid_check_digit5testss_47test_calculate_check_digit_single_letter_prefix
FNDA:128,_RNCNvNtCseOoxELMropi_8hkid_ops16hkid_check_digit21calculate_check_digit0B5_
FNDA:136,_RNvNtCseOoxELMropi_8hkid_ops16hkid_check_digit13char_to_value
FNDA:16,_RNvNtCseOoxELMropi_8hkid_ops16hkid_check_digit21calculate_check_digit
FNDA:1,_RNvNtNtCseOoxELMropi_8hkid_ops16hkid_check_digit5testss_18test_char_to_value
FNDA:1,_RNvNtNtCseOoxELMropi_8hkid_ops16hkid_check_digit5testss_39test_calculate_check_digit_with_padding
FNDA:1,_RNvNtNtCseOoxELMropi_8hkid_ops16hkid_check_digit5testss_41test_calculate_check_digit_resulting_in_a
FNDA:1,_RNvNtNtCseOoxELMropi_8hkid_ops16hkid_check_digit5testss_47test_calculate_check_digit_double_letter_prefix
FNDA:1,_RNvNtNtCseOoxELMropi_8hkid_ops16hkid_check_digit5testss_47test_calculate_check_digit_single_letter_prefix
FNF:8
FNH:8
DA:24,136
DA:25,136
DA:26,136
DA:27,136
DA:28,26
DA:29,99
DA:30,11
DA:31,1
DA:33,136
DA:66,16
DA:67,16
DA:68,9
DA:70,7
DA:73,16
DA:74,16
DA:75,128
DA:76,16
DA:77,16
DA:78,16
DA:79,0
DA:80,16
DA:82,16
DA:89,1
DA:90,1
DA:91,1
DA:92,1
DA:93,1
DA:94,1
DA:95,1
DA:96,1
DA:97,1
DA:98,1
DA:101,1
DA:102,1
DA:103,1
DA:104,1
DA:105,1
DA:106,1
DA:109,1
DA:110,1
DA:111,1
DA:112,1
DA:113,1
DA:114,1
DA:117,1
DA:118,1
DA:119,1
DA:120,1
DA:121,1
DA:122,1
DA:125,1
DA:126,1
DA:127,1
DA:128,1
DA:129,1
DA:130,1
DA:131,1
BRF:0
BRH:0
LF:58
LH:57
end_of_record
SF:/Users/samleung/Desktop/unified_workspace/black_hole/program/hkid_ops/rust_hkid_ops/src/hkid_generator.rs
FN:79,_RNCNvNtCseOoxELMropi_8hkid_ops14hkid_generator13generate_hkid0B5_
FN:85,_RNCNvNtCseOoxELMropi_8hkid_ops14hkid_generator13generate_hkids_0B5_
FN:144,_RNCNvNtNtCseOoxELMropi_8hkid_ops14hkid_generator5tests15is_valid_format0B7_
FN:210,_RNCNvNtNtCseOoxELMropi_8hkid_ops14hkid_generator5testss_41test_generate_hkid_with_random_any_prefix0B7_
FN:59,_RNvNtCseOoxELMropi_8hkid_ops14hkid_generator13generate_hkid
FN:120,_RNvNtNtCseOoxELMropi_8hkid_ops14hkid_generator5tests15is_valid_format
FN:221,_RNvNtNtCseOoxELMropi_8hkid_ops14hkid_generator5testss_36test_generate_hkid_with_empty_prefix
FN:148,_RNvNtNtCseOoxELMropi_8hkid_ops14hkid_generator5testss_36test_generate_hkid_with_known_prefix
FN:228,_RNvNtNtCseOoxELMropi_8hkid_ops14hkid_generator5testss_40test_generate_hkid_with_lowercase_prefix
FN:200,_RNvNtNtCseOoxELMropi_8hkid_ops14hkid_generator5testss_41test_generate_hkid_with_random_any_prefix
FN:187,_RNvNtNtCseOoxELMropi_8hkid_ops14hkid_generator5testss_43test_generate_hkid_with_random_known_prefix
FN:174,_RNvNtNtCseOoxELMropi_8hkid_ops14hkid_generator5testss_45test_generate_hkid_with_custom_prefix_allowed
FN:161,_RNvNtNtCseOoxELMropi_8hkid_ops14hkid_generator5testss_47test_generate_hkid_with_two_letter_known_prefix
FNDA:30,_RNCNvNtCseOoxELMropi_8hkid_ops14hkid_generator13generate_hkid0B5_
FNDA:0,_RNCNvNtCseOoxELMropi_8hkid_ops14hkid_generator13generate_hkids_0B5_
FNDA:30,_RNCNvNtNtCseOoxELMropi_8hkid_ops14hkid_generator5tests15is_valid_format0B7_
FNDA:2,_RNCNvNtNtCseOoxELMropi_8hkid_ops14hkid_generator5testss_41test_generate_hkid_with_random_any_prefix0B7_
FNDA:7,_RNvNtCseOoxELMropi_8hkid_ops14hkid_generator13generate_hkid
FNDA:5,_RNvNtNtCseOoxELMropi_8hkid_ops14hkid_generator5tests15is_valid_format
FNDA:1,_RNvNtNtCseOoxELMropi_8hkid_ops14hkid_generator5testss_36test_generate_hkid_with_empty_prefix
FNDA:1,_RNvNtNtCseOoxELMropi_8hkid_ops14hkid_generator5testss_36test_generate_hkid_with_known_prefix
FNDA:1,_RNvNtNtCseOoxELMropi_8hkid_ops14hkid_generator5testss_40test_generate_hkid_with_lowercase_prefix
FNDA:1,_RNvNtNtCseOoxELMropi_8hkid_ops14hkid_generator5testss_41test_generate_hkid_with_random_any_prefix
FNDA:1,_RNvNtNtCseOoxELMropi_8hkid_ops14hkid_generator5testss_43test_generate_hkid_with_random_known_prefix
FNDA:1,_RNvNtNtCseOoxELMropi_8hkid_ops14hkid_generator5testss_45test_generate_hkid_with_custom_prefix_allowed
FNDA:1,_RNvNtNtCseOoxELMropi_8hkid_ops14hkid_generator5testss_47test_generate_hkid_with_two_letter_known_prefix
FNF:13
FNH:12
DA:59,7
DA:60,7
DA:61,7
DA:62,7
DA:63,7
DA:66,7
DA:67,5
DA:68,5
DA:69,5
DA:70,2
DA:71,3
DA:72,3
DA:75,2
DA:76,1
DA:77,1
DA:78,1
DA:79,30
DA:80,1
DA:81,1
DA:82,1
DA:83,1
DA:84,1
DA:85,1
DA:88,1
DA:90,1
DA:91,1
DA:94,0
DA:95,0
DA:96,0
DA:103,5
DA:106,35
DA:107,30
DA:108,30
DA:110,5
DA:111,5
DA:112,5
DA:113,7
DA:120,5
DA:121,5
DA:122,5
DA:123,5
DA:124,0
DA:125,5
DA:126,5
DA:127,5
DA:128,5
DA:129,5
DA:130,5
DA:131,0
DA:132,5
DA:133,5
DA:134,5
DA:135,5
DA:136,5
DA:137,0
DA:138,5
DA:139,5
DA:140,5
DA:141,5
DA:142,5
DA:143,5
DA:144,30
DA:145,5
DA:148,1
DA:149,1
DA:150,1
DA:151,1
DA:152,1
DA:154,1
DA:155,1
DA:156,1
DA:157,1
DA:158,1
DA:161,1
DA:162,1
DA:163,1
DA:164,1
DA:165,1
DA:167,1
DA:168,1
DA:169,1
DA:170,1
DA:171,1
DA:174,1
DA:175,1
DA:176,1
DA:177,1
DA:178,1
DA:180,1
DA:181,1
DA:182,1
DA:183,1
DA:184,1
DA:187,1
DA:188,1
DA:189,1
DA:190,1
DA:191,1
DA:193,1
DA:194,1
DA:195,1
DA:196,1
DA:197,1
DA:200,1
DA:201,1
DA:202,1
DA:203,1
DA:204,1
DA:206,1
DA:207,1
DA:208,1
DA:210,2
DA:211,1
DA:212,1
DA:214,1
DA:215,1
DA:216,1
DA:218,1
DA:221,1
DA:222,1
DA:223,1
DA:224,1
DA:225,1
DA:228,1
DA:229,1
DA:230,1
DA:231,1
DA:232,1
BRF:0
BRH:0
LF:132
LH:125
end_of_record
SF:/Users/samleung/Desktop/unified_workspace/black_hole/program/hkid_ops/rust_hkid_ops/src/hkid_prefix.rs
FN:145,_RNvMNtCseOoxELMropi_8hkid_ops11hkid_prefixNtB2_10HKIDPrefix5parse
FN:234,_RNvMNtCseOoxELMropi_8hkid_ops11hkid_prefixNtB2_10HKIDPrefix6as_str
FN:184,_RNvMNtCseOoxELMropi_8hkid_ops11hkid_prefixNtB2_10HKIDPrefix6to_str
FN:253,_RNvMNtCseOoxELMropi_8hkid_ops11hkid_prefixNtB2_10HKIDPrefix8is_known
FN:333,_RNvNtNtCseOoxELMropi_8hkid_ops11hkid_prefix5testss_25test_parse_unknown_prefix
FN:393,_RNvNtNtCseOoxELMropi_8hkid_ops11hkid_prefix5testss_26test_as_str_known_prefixes
FN:400,_RNvNtNtCseOoxELMropi_8hkid_ops11hkid_prefix5testss_26test_as_str_unknown_prefix
FN:348,_RNvNtNtCseOoxELMropi_8hkid_ops11hkid_prefix5testss_26test_to_str_known_prefixes
FN:387,_RNvNtNtCseOoxELMropi_8hkid_ops11hkid_prefix5testss_26test_to_str_unknown_prefix
FN:280,_RNvNtNtCseOoxELMropi_8hkid_ops11hkid_prefix5testss_32test_code_and_message_xb_variant
FN:265,_RNvNtNtCseOoxELMropi_8hkid_ops11hkid_prefix5testss_35test_code_and_message_basic_variant
FN:406,_RNvNtNtCseOoxELMropi_8hkid_ops11hkid_prefix5testss_35test_is_known_for_known_and_unknown
FN:289,_RNvNtNtCseOoxELMropi_8hkid_ops11hkid_prefix5testss_37test_code_and_message_unknown_variant
FN:320,_RNvNtNtCseOoxELMropi_8hkid_ops11hkid_prefix5testss_39test_parse_known_double_letter_prefixes
FN:295,_RNvNtNtCseOoxELMropi_8hkid_ops11hkid_prefix5testss_39test_parse_known_single_letter_prefixes
FN:57,_RNvXs3_NtCseOoxELMropi_8hkid_ops11hkid_prefixNtB5_10HKIDPrefixINtNtCshC8zbRHREv4_4core7convert7TryFromReE8try_fromB7_
FN:57,_RNvXs4_NtCseOoxELMropi_8hkid_ops11hkid_prefixNtB5_10HKIDPrefixNtCsjAIDtjTKMrp_5strum11EnumMessage17get_documentationB7_
FN:57,_RNvXs7_NtCseOoxELMropi_8hkid_ops11hkid_prefixNtB5_14HKIDPrefixIterNtNtCshC8zbRHREv4_4core3fmt5Debug3fmt
FN:57,_RNvXs9_NtCseOoxELMropi_8hkid_ops11hkid_prefixNtB5_10HKIDPrefixNtCsjAIDtjTKMrp_5strum16IntoEnumIterator4iterB7_
FN:57,_RNvXsa_NtCseOoxELMropi_8hkid_ops11hkid_prefixNtB5_14HKIDPrefixIterNtNtNtNtCshC8zbRHREv4_4core4iter6traits8iterator8Iterator4nextB7_
FN:57,_RNvXsb_NtCseOoxELMropi_8hkid_ops11hkid_prefixNtB5_14HKIDPrefixIterNtNtNtNtCshC8zbRHREv4_4core4iter6traits10exact_size17ExactSizeIterator3lenB7_
FN:57,_RNvXse_NtCseOoxELMropi_8hkid_ops11hkid_prefixNtB5_14HKIDPrefixIterNtNtCshC8zbRHREv4_4core5clone5Clone5cloneB7_
FNDA:38,_RNvMNtCseOoxELMropi_8hkid_ops11hkid_prefixNtB2_10HKIDPrefix5parse
FNDA:38,_RNvMNtCseOoxELMropi_8hkid_ops11hkid_prefixNtB2_10HKIDPrefix6as_str
FNDA:30,_RNvMNtCseOoxELMropi_8hkid_ops11hkid_prefixNtB2_10HKIDPrefix6to_str
FNDA:39,_RNvMNtCseOoxELMropi_8hkid_ops11hkid_prefixNtB2_10HKIDPrefix8is_known
FNDA:1,_RNvNtNtCseOoxELMropi_8hkid_ops11hkid_prefix5testss_25test_parse_unknown_prefix
FNDA:1,_RNvNtNtCseOoxELMropi_8hkid_ops11hkid_prefix5testss_26test_as_str_known_prefixes
FNDA:1,_RNvNtNtCseOoxELMropi_8hkid_ops11hkid_prefix5testss_26test_as_str_unknown_prefix
FNDA:1,_RNvNtNtCseOoxELMropi_8hkid_ops11hkid_prefix5testss_26test_to_str_known_prefixes
FNDA:1,_RNvNtNtCseOoxELMropi_8hkid_ops11hkid_prefix5testss_26test_to_str_unknown_prefix
FNDA:1,_RNvNtNtCseOoxELMropi_8hkid_ops11hkid_prefix5testss_32test_code_and_message_xb_variant
FNDA:1,_RNvNtNtCseOoxELMropi_8hkid_ops11hkid_prefix5testss_35test_code_and_message_basic_variant
FNDA:1,_RNvNtNtCseOoxELMropi_8hkid_ops11hkid_prefix5testss_35test_is_known_for_known_and_unknown
FNDA:1,_RNvNtNtCseOoxELMropi_8hkid_ops11hkid_prefix5testss_37test_code_and_message_unknown_variant
FNDA:1,_RNvNtNtCseOoxELMropi_8hkid_ops11hkid_prefix5testss_39test_parse_known_double_letter_prefixes
FNDA:1,_RNvNtNtCseOoxELMropi_8hkid_ops11hkid_prefix5testss_39test_parse_known_single_letter_prefixes
FNDA:0,_RNvXs3_NtCseOoxELMropi_8hkid_ops11hkid_prefixNtB5_10HKIDPrefixINtNtCshC8zbRHREv4_4core7convert7TryFromReE8try_fromB7_
FNDA:0,_RNvXs4_NtCseOoxELMropi_8hkid_ops11hkid_prefixNtB5_10HKIDPrefixNtCsjAIDtjTKMrp_5strum11EnumMessage17get_documentationB7_
FNDA:0,_RNvXs7_NtCseOoxELMropi_8hkid_ops11hkid_prefixNtB5_14HKIDPrefixIterNtNtCshC8zbRHREv4_4core3fmt5Debug3fmt
FNDA:1,_RNvXs9_NtCseOoxELMropi_8hkid_ops11hkid_prefixNtB5_10HKIDPrefixNtCsjAIDtjTKMrp_5strum16IntoEnumIterator4iterB7_
FNDA:32,_RNvXsa_NtCseOoxELMropi_8hkid_ops11hkid_prefixNtB5_14HKIDPrefixIterNtNtNtNtCshC8zbRHREv4_4core4iter6traits8iterator8Iterator4nextB7_
FNDA:0,_RNvXsb_NtCseOoxELMropi_8hkid_ops11hkid_prefixNtB5_14HKIDPrefixIterNtNtNtNtCshC8zbRHREv4_4core4iter6traits10exact_size17ExactSizeIterator3lenB7_
FNDA:0,_RNvXse_NtCseOoxELMropi_8hkid_ops11hkid_prefixNtB5_14HKIDPrefixIterNtNtCshC8zbRHREv4_4core5clone5Clone5cloneB7_
FNF:18
FNH:16
DA:57,33
DA:145,38
DA:146,38
DA:147,38
DA:148,36
DA:149,35
DA:150,34
DA:151,33
DA:152,32
DA:153,31
DA:154,30
DA:155,29
DA:156,28
DA:157,27
DA:158,26
DA:159,25
DA:160,24
DA:161,23
DA:162,22
DA:163,21
DA:164,20
DA:165,19
DA:166,18
DA:167,17
DA:168,16
DA:169,15
DA:170,13
DA:171,12
DA:172,11
DA:173,10
DA:174,9
DA:175,8
DA:176,7
DA:177,6
DA:179,38
DA:184,30
DA:185,30
DA:186,1
DA:187,1
DA:188,1
DA:189,1
DA:190,1
DA:191,1
DA:192,1
DA:193,1
DA:194,1
DA:195,1
DA:196,1
DA:197,1
DA:198,1
DA:199,1
DA:200,1
DA:201,1
DA:202,1
DA:203,1
DA:204,1
DA:205,1
DA:206,1
DA:207,1
DA:208,1
DA:209,1
DA:210,1
DA:211,1
DA:212,1
DA:213,1
DA:214,1
DA:215,1
DA:216,0
DA:218,30
DA:234,38
DA:235,38
DA:236,3
DA:237,35
DA:239,38
DA:253,39
DA:254,39
DA:255,39
DA:265,1
DA:266,1
DA:267,1
DA:268,1
DA:269,1
DA:270,1
DA:272,1
DA:273,1
DA:274,1
DA:275,1
DA:276,1
DA:277,1
DA:280,1
DA:281,1
DA:282,1
DA:283,1
DA:284,1
DA:285,1
DA:286,1
DA:289,1
DA:290,1
DA:291,1
DA:292,1
DA:295,1
DA:296,1
DA:297,1
DA:298,1
DA:299,1
DA:300,1
DA:301,1
DA:302,1
DA:303,1
DA:304,1
DA:305,1
DA:306,1
DA:307,1
DA:308,1
DA:309,1
DA:310,1
DA:311,1
DA:312,1
DA:313,1
DA:314,1
DA:315,1
DA:316,1
DA:317,1
DA:320,1
DA:321,1
DA:322,1
DA:323,1
DA:324,1
DA:325,1
DA:326,1
DA:327,1
DA:328,1
DA:329,1
DA:330,1
DA:333,1
DA:334,1
DA:335,1
DA:336,1
DA:337,0
DA:340,1
DA:341,1
DA:342,1
DA:343,0
DA:345,1
DA:348,1
DA:349,1
DA:350,1
DA:351,1
DA:352,1
DA:353,1
DA:354,1
DA:355,1
DA:356,1
DA:357,1
DA:358,1
DA:359,1
DA:360,1
DA:361,1
DA:362,1
DA:363,1
DA:364,1
DA:365,1
DA:366,1
DA:367,1
DA:368,1
DA:369,1
DA:370,1
DA:371,1
DA:372,1
DA:373,1
DA:374,1
DA:375,1
DA:376,1
DA:377,1
DA:378,1
DA:379,1
DA:380,1
DA:381,31
DA:382,30
DA:384,1
DA:387,1
DA:388,1
DA:389,1
DA:390,1
DA:393,1
DA:394,1
DA:395,1
DA:396,1
DA:397,1
DA:400,1
DA:401,1
DA:402,1
DA:403,1
DA:406,1
DA:407,1
DA:408,1
DA:409,1
DA:410,1
BRF:0
BRH:0
LF:200
LH:195
end_of_record
SF:/Users/samleung/Desktop/unified_workspace/black_hole/program/hkid_ops/rust_hkid_ops/src/hkid_symbol.rs
FN:157,_RNvMNtCseOoxELMropi_8hkid_ops11hkid_symbolNtB2_10HKIDSymbol5parse
FN:301,_RNvNtNtCseOoxELMropi_8hkid_ops11hkid_symbol5testss_18test_parse_unknown
FN:268,_RNvNtNtCseOoxELMropi_8hkid_ops11hkid_symbol5testss_20test_parse_lost_card
FN:242,_RNvNtNtCseOoxELMropi_8hkid_ops11hkid_symbol5testss_27test_parse_standard_symbols
FN:280,_RNvNtNtCseOoxELMropi_8hkid_ops11hkid_symbol5testss_30test_parse_issuing_office_code
FN:235,_RNvNtNtCseOoxELMropi_8hkid_ops11hkid_symbol5testss_31test_symbol_and_message_unknown
FN:214,_RNvNtNtCseOoxELMropi_8hkid_ops11hkid_symbol5testss_33test_symbol_and_message_lost_card
FN:195,_RNvNtNtCseOoxELMropi_8hkid_ops11hkid_symbol5testss_38test_symbol_and_message_basic_variants
FN:225,_RNvNtNtCseOoxELMropi_8hkid_ops11hkid_symbol5testss_43test_symbol_and_message_issuing_office_code
FN:36,_RNvXs2_NtCseOoxELMropi_8hkid_ops11hkid_symbolNtB5_10HKIDSymbolNtCsjAIDtjTKMrp_5strum11EnumMessage17get_documentationB7_
FNDA:25,_RNvMNtCseOoxELMropi_8hkid_ops11hkid_symbolNtB2_10HKIDSymbol5parse
FNDA:1,_RNvNtNtCseOoxELMropi_8hkid_ops11hkid_symbol5testss_18test_parse_unknown
FNDA:1,_RNvNtNtCseOoxELMropi_8hkid_ops11hkid_symbol5testss_20test_parse_lost_card
FNDA:1,_RNvNtNtCseOoxELMropi_8hkid_ops11hkid_symbol5testss_27test_parse_standard_symbols
FNDA:1,_RNvNtNtCseOoxELMropi_8hkid_ops11hkid_symbol5testss_30test_parse_issuing_office_code
FNDA:1,_RNvNtNtCseOoxELMropi_8hkid_ops11hkid_symbol5testss_31test_symbol_and_message_unknown
FNDA:1,_RNvNtNtCseOoxELMropi_8hkid_ops11hkid_symbol5testss_33test_symbol_and_message_lost_card
FNDA:1,_RNvNtNtCseOoxELMropi_8hkid_ops11hkid_symbol5testss_38test_symbol_and_message_basic_variants
FNDA:1,_RNvNtNtCseOoxELMropi_8hkid_ops11hkid_symbol5testss_43test_symbol_and_message_issuing_office_code
FNDA:0,_RNvXs2_NtCseOoxELMropi_8hkid_ops11hkid_symbolNtB5_10HKIDSymbolNtCsjAIDtjTKMrp_5strum11EnumMessage17get_documentationB7_
FNF:10
FNH:9
DA:36,0
DA:157,25
DA:158,8
DA:159,25
DA:160,24
DA:161,23
DA:162,22
DA:163,21
DA:164,20
DA:165,19
DA:166,18
DA:167,17
DA:168,16
DA:169,15
DA:170,14
DA:171,13
DA:172,12
DA:173,4
DA:174,3
DA:176,1
DA:179,8
DA:180,3
DA:182,5
DA:184,25
DA:195,1
DA:196,1
DA:197,1
DA:198,1
DA:199,1
DA:200,1
DA:201,1
DA:202,1
DA:204,1
DA:205,1
DA:206,1
DA:207,1
DA:208,1
DA:209,1
DA:210,1
DA:211,1
DA:214,1
DA:215,1
DA:216,1
DA:217,1
DA:218,1
DA:219,1
DA:220,1
DA:221,1
DA:222,1
DA:225,1
DA:226,1
DA:227,1
DA:228,1
DA:229,1
DA:230,1
DA:231,1
DA:232,1
DA:235,1
DA:236,1
DA:237,1
DA:238,1
DA:239,1
DA:242,1
DA:243,1
DA:244,1
DA:245,1
DA:246,1
DA:247,1
DA:248,1
DA:249,1
DA:250,1
DA:251,1
DA:252,1
DA:253,1
DA:254,1
DA:255,1
DA:256,1
DA:257,1
DA:258,1
DA:259,1
DA:260,1
DA:261,1
DA:262,1
DA:263,1
DA:264,1
DA:265,1
DA:268,1
DA:269,1
DA:270,1
DA:271,1
DA:273,1
DA:274,1
DA:275,1
DA:276,1
DA:277,1
DA:280,1
DA:281,1
DA:282,1
DA:283,1
DA:284,1
DA:285,1
DA:286,1
DA:287,1
DA:288,1
DA:289,1
DA:290,1
DA:291,1
DA:292,1
DA:294,1
DA:295,1
DA:296,1
DA:297,1
DA:298,1
DA:301,1
DA:302,1
DA:303,1
DA:304,1
DA:305,1
DA:306,1
DA:307,1
DA:308,1
DA:309,1
BRF:0
BRH:0
LF:122
LH:121
end_of_record
SF:/Users/samleung/Desktop/unified_workspace/black_hole/program/hkid_ops/rust_hkid_ops/src/hkid_validator.rs
FN:48,_RNCNvNtCseOoxELMropi_8hkid_ops14hkid_validator13validate_hkid0B5_
FN:44,_RNvNtCseOoxELMropi_8hkid_ops14hkid_validator13validate_hkid
FN:85,_RNvNtNtCseOoxELMropi_8hkid_ops14hkid_validator5testss_26test_validate_hkid_correct
FN:102,_RNvNtNtCseOoxELMropi_8hkid_ops14hkid_validator5testss_33test_validate_hkid_invalid_format
FN:94,_RNvNtNtCseOoxELMropi_8hkid_ops14hkid_validator5testss_34test_validate_hkid_incorrect_digit
FN:113,_RNvNtNtCseOoxELMropi_8hkid_ops14hkid_validator5testss_49test_validate_hkid_unknown_prefix_with_must_exist
FNDA:37,_RNCNvNtCseOoxELMropi_8hkid_ops14hkid_validator13validate_hkid0B5_
FNDA:4,_RNvNtCseOoxELMropi_8hkid_ops14hkid_validator13validate_hkid
FNDA:1,_RNvNtNtCseOoxELMropi_8hkid_ops14hkid_validator5testss_26test_validate_hkid_correct
FNDA:1,_RNvNtNtCseOoxELMropi_8hkid_ops14hkid_validator5testss_33test_validate_hkid_invalid_format
FNDA:1,_RNvNtNtCseOoxELMropi_8hkid_ops14hkid_validator5testss_34test_validate_hkid_incorrect_digit
FNDA:1,_RNvNtNtCseOoxELMropi_8hkid_ops14hkid_validator5testss_49test_validate_hkid_unknown_prefix_with_must_exist
FNF:6
FNH:6
DA:44,4
DA:45,4
DA:46,4
DA:47,4
DA:48,37
DA:49,4
DA:50,4
DA:51,4
DA:52,4
DA:53,4
DA:54,1
DA:55,3
DA:56,3
DA:57,3
DA:58,3
DA:59,3
DA:60,3
DA:61,3
DA:62,3
DA:63,3
DA:64,3
DA:65,3
DA:66,3
DA:67,3
DA:68,3
DA:69,1
DA:70,1
DA:71,1
DA:72,0
DA:73,2
DA:76,2
DA:77,2
DA:78,4
DA:85,1
DA:86,1
DA:87,1
DA:88,1
DA:89,1
DA:90,1
DA:91,1
DA:94,1
DA:95,1
DA:96,1
DA:97,1
DA:98,1
DA:99,1
DA:102,1
DA:103,1
DA:104,1
DA:105,1
DA:106,1
DA:107,1
DA:108,1
DA:109,1
DA:110,1
DA:113,1
DA:114,1
DA:115,1
DA:116,1
DA:117,1
DA:118,1
BRF:0
BRH:0
LF:62
LH:61
end_of_record
